; Function Attrs: mustprogress uwtable
define void @llama_free_model(ptr noundef %0) local_unnamed_addr #3 {
  %2 = icmp eq ptr %0, null
  br i1 %2, label %llama_model_free.exit, label %3

3:                                                ; preds = %1
  tail call void @_ZN11llama_modelD1Ev(ptr noundef nonnull align 8 dereferenceable(6784) %0) #35
  tail call void @_ZdlPvm(ptr noundef nonnull %0, i64 noundef 6784) #37
  br label %llama_model_free.exit

llama_model_free.exit:                            ; preds = %1, %3
  ret void
}